target datalayout = "e-m:e-p270:32:32-p271:32:32-p272:64:64-i64:64-i128:128-f80:128-n8:16:32:64-S128"
target triple = "x86_64-pc-linux-gnu"

@g_ascii_table = external constant ptr, align 8
@.str.370 = private unnamed_addr constant [5 x i8] c"'%c'\00", align 1
@.str.371 = private unnamed_addr constant [4 x i8] c"^%c\00", align 1
@.str.372 = private unnamed_addr constant [7 x i8] c"0x%02x\00", align 1

; Function Attrs: null_pointer_is_valid sspstrong uwtable
define internal i32 @dissect_lat_channel_char(ptr noundef %0, i32 noundef %1, ptr noundef %2, i32 noundef %3) #0 {
  %5 = alloca ptr, align 8
  %6 = alloca i32, align 4
  %7 = alloca ptr, align 8
  %8 = alloca i32, align 4
  %9 = alloca i8, align 1
  store ptr %0, ptr %5, align 8
  store i32 %1, ptr %6, align 4
  store ptr %2, ptr %7, align 8
  store i32 %3, ptr %8, align 4
  call void @llvm.lifetime.start.p0(i64 1, ptr %9) #3
  %10 = load ptr, ptr %7, align 8
  %11 = load i32, ptr %8, align 4
  %12 = call zeroext i8 @tvb_get_uint8(ptr noundef %10, i32 noundef %11)
  store i8 %12, ptr %9, align 1
  %13 = load ptr, ptr @g_ascii_table, align 8
  %14 = load i8, ptr %9, align 1
  %15 = zext i8 %14 to i64
  %16 = getelementptr i16, ptr %13, i64 %15
  %17 = load i16, ptr %16, align 2
  %18 = zext i16 %17 to i32
  %19 = and i32 %18, 64
  %20 = icmp ne i32 %19, 0
  br i1 %20, label %21, label %31

21:                                               ; preds = %4
  %22 = load ptr, ptr %5, align 8
  %23 = load i32, ptr %6, align 4
  %24 = load ptr, ptr %7, align 8
  %25 = load i32, ptr %8, align 4
  %26 = load i8, ptr %9, align 1
  %27 = zext i8 %26 to i32
  %28 = load i8, ptr %9, align 1
  %29 = zext i8 %28 to i32
  %30 = call ptr (ptr, i32, ptr, i32, i32, i32, ptr, ...) @proto_tree_add_uint_format_value(ptr noundef %22, i32 noundef %23, ptr noundef %24, i32 noundef %25, i32 noundef 1, i32 noundef %27, ptr noundef @.str.370, i32 noundef %29)
  br label %57

31:                                               ; preds = %4
  %32 = load i8, ptr %9, align 1
  %33 = zext i8 %32 to i32
  %34 = icmp slt i32 %33, 32
  br i1 %34, label %35, label %46

35:                                               ; preds = %31
  %36 = load ptr, ptr %5, align 8
  %37 = load i32, ptr %6, align 4
  %38 = load ptr, ptr %7, align 8
  %39 = load i32, ptr %8, align 4
  %40 = load i8, ptr %9, align 1
  %41 = zext i8 %40 to i32
  %42 = load i8, ptr %9, align 1
  %43 = zext i8 %42 to i32
  %44 = add i32 %43, 64
  %45 = call ptr (ptr, i32, ptr, i32, i32, i32, ptr, ...) @proto_tree_add_uint_format_value(ptr noundef %36, i32 noundef %37, ptr noundef %38, i32 noundef %39, i32 noundef 1, i32 noundef %41, ptr noundef @.str.371, i32 noundef %44)
  br label %56

46:                                               ; preds = %31
  %47 = load ptr, ptr %5, align 8
  %48 = load i32, ptr %6, align 4
  %49 = load ptr, ptr %7, align 8
  %50 = load i32, ptr %8, align 4
  %51 = load i8, ptr %9, align 1
  %52 = zext i8 %51 to i32
  %53 = load i8, ptr %9, align 1
  %54 = zext i8 %53 to i32
  %55 = call ptr (ptr, i32, ptr, i32, i32, i32, ptr, ...) @proto_tree_add_uint_format_value(ptr noundef %47, i32 noundef %48, ptr noundef %49, i32 noundef %50, i32 noundef 1, i32 noundef %52, ptr noundef @.str.372, i32 noundef %54)
  br label %56

56:                                               ; preds = %46, %35
  br label %57

57:                                               ; preds = %56, %21
  %58 = load i32, ptr %8, align 4
  %59 = add i32 %58, 1
  store i32 %59, ptr %8, align 4
  %60 = load i32, ptr %8, align 4
  call void @llvm.lifetime.end.p0(i64 1, ptr %9) #3
  ret i32 %60
}