; Function Attrs: null_pointer_is_valid sspstrong uwtable
define internal fastcc noundef i32 @dissect_lat_channel_char(ptr noundef %0, i32 noundef %1, ptr noundef %2, i32 noundef %3) unnamed_addr #0 {
  %5 = tail call zeroext i8 @tvb_get_uint8(ptr noundef %2, i32 noundef %3)
  %6 = load ptr, ptr @g_ascii_table, align 8
  %7 = zext i8 %5 to i64
  %8 = getelementptr i16, ptr %6, i64 %7
  %9 = load i16, ptr %8, align 2
  %10 = and i16 %9, 64
  %.not = icmp eq i16 %10, 0
  %11 = zext i8 %5 to i32
  br i1 %.not, label %14, label %12

12:                                               ; preds = %4
  %13 = tail call ptr (ptr, i32, ptr, i32, i32, i32, ptr, ...) @proto_tree_add_uint_format_value(ptr noundef %0, i32 noundef %1, ptr noundef %2, i32 noundef %3, i32 noundef 1, i32 noundef %11, ptr noundef nonnull @.str.370, i32 noundef %11)
  br label %21

14:                                               ; preds = %4
  %15 = icmp ult i8 %5, 32
  br i1 %15, label %16, label %19

16:                                               ; preds = %14
  %17 = or disjoint i32 %11, 64
  %18 = tail call ptr (ptr, i32, ptr, i32, i32, i32, ptr, ...) @proto_tree_add_uint_format_value(ptr noundef %0, i32 noundef %1, ptr noundef %2, i32 noundef %3, i32 noundef 1, i32 noundef %11, ptr noundef nonnull @.str.371, i32 noundef %17)
  br label %21

19:                                               ; preds = %14
  %20 = tail call ptr (ptr, i32, ptr, i32, i32, i32, ptr, ...) @proto_tree_add_uint_format_value(ptr noundef %0, i32 noundef %1, ptr noundef %2, i32 noundef %3, i32 noundef 1, i32 noundef %11, ptr noundef nonnull @.str.372, i32 noundef %11)
  br label %21

21:                                               ; preds = %16, %19, %12
  %22 = add i32 %3, 1
  ret i32 %22
}